((lp1
I12100
aI10900
aI18700
aI15900
aI14900
aI11200
aI13000
aI16300
aI11400
aI11100
aI13800
aI13300
aI12500
aI19100
aI11300
aI14200
aI16600
aI13900
aI17800
aI11700
aI11600
aI16800
aI17100
aI19500
aI10600
aI14300
aI15400
aI11800
aI10100
aI15300
aI19600
aI15600
aI18500
aI10300
aI14500
aI12900
aI19000
aI18600
aI16000
aI12200
aI15200
aI12800
aI15700
aI17500
aI19200
aI15500
aI10500
aI15800
aI13200
aI18900
aI16400
aI13600
aI18200
aI12700
aI17600
aI19700
aI17300
aI10200
aI17000
aI17700
aI18800
aI14000
aI19400
aI13500
aI12600
aI16900
aI14600
aI16100
aI14400
aI18300
aI11900
aI19900
aI10800
aI18100
aI17200
aI16200
aI17900
aI16500
aI14700
aI15100
aI13400
aI15000
aI17400
aI13700
aI10400
aI18400
aI10700
aI19300
aI14100
aI10000
aI18000
aI12400
aI12300
aI12000
aI11500
aI19800
aI14800
aI13100
aI16700
aI11000
a(lp2
F0.024
aF0.066000000000000003
aF0.092999999999999999
aF0.19500000000000001
aF0.246
aF0.048000000000000001
aF0.13200000000000001
aF0.22500000000000001
aF0.27900000000000003
aF0.26400000000000001
aF0.249
aF0.23400000000000001
aF0.044999999999999998
aF0.17399999999999999
aF0.105
aF0.096000000000000002
aF0.13500000000000001
aF0.19800000000000001
aF0.252
aF0.108
aF0.28499999999999998
aF0.089999999999999997
aF0.28199999999999997
aF0.27300000000000002
aF0.20399999999999999
aF0
aF0.22800000000000001
aF0.063
aF0.219
aF0.156
aF0.123
aF0.26100000000000001
aF0.029999999999999999
aF0.053999999999999999
aF0.16200000000000001
aF0.14099999999999999
aF0.111
aF0.23699999999999999
aF0.050999999999999997
aF0.033000000000000002
aF0.0060000000000000001
aF0.126
aF0.084000000000000005
aF0.059999999999999998
aF0.11700000000000001
aF0.186
aF0.057000000000000002
aF0.129
aF0.29399999999999998
aF0.153
aF0.216
aF0.069000000000000006
aF0.017999999999999999
aF0.29699999999999999
aF0.14999999999999999
aF0.25800000000000001
aF0.012
aF0.29099999999999998
aF0.183
aF0.16500000000000001
aF0.159
aF0.0089999999999999993
aF0.27000000000000002
aF0.014999999999999999
aF0.14699999999999999
aF0.10199999999999999
aF0.021000000000000001
aF0.042000000000000003
aF0.24299999999999999
aF0.20699999999999999
aF0.027
aF0.12
aF0.039
aF0.074999999999999997
aF0.081000000000000003
aF0.222
aF0.099000000000000005
aF0.23100000000000001
aF0.16800000000000001
aF0.17100000000000001
aF0.20100000000000001
aF0.0030000000000000001
aF0.27600000000000002
aF0.20999999999999999
aF0.14399999999999999
aF0.192
aF0.13800000000000001
aF0.26700000000000002
aF0.17999999999999999
aF0.21299999999999999
aF0.189
aF0.23999999999999999
aF0.255
aF0.114
aF0.28799999999999998
aF0.035999999999999997
aF0.17699999999999999
aF0.078
aF0.071999999999999995
aF0.086999999999999994
a(lp3
I7
aI5
aI6
a(lp4
I578
aI404
aI566
aI584
aI462
aI450
aI416
aI442
aI496
aI506
aI434
aI552
aI406
aI508
aI530
aI592
aI492
aI432
aI572
aI440
aI568
aI408
aI556
aI426
aI538
aI484
aI474
aI438
aI458
aI480
aI510
aI528
aI444
aI464
aI596
aI482
aI430
aI470
aI410
aI562
aI420
aI580
aI512
aI594
aI532
aI494
aI488
aI402
aI574
aI422
aI548
aI524
aI550
aI456
aI468
aI478
aI540
aI504
aI534
aI412
aI518
aI424
aI582
aI498
aI544
aI502
aI460
aI446
aI472
aI476
aI570
aI520
aI400
aI558
aI490
aI522
aI586
aI454
aI452
aI418
aI436
aI516
aI414
aI448
aI590
aI500
aI560
aI554
aI466
aI514
aI428
aI588
aI576
aI486
aI536
aI546
aI542
aI564
aI598
aI526
a(lp5
F0.68200000000000005
aF0.55600000000000005
aF0.60799999999999998
aF0.5
aF0.58399999999999996
aF0.58599999999999997
aF0.61799999999999999
aF0.51000000000000001
aF0.60599999999999998
aF0.622
aF0.59999999999999998
aF0.67800000000000005
aF0.66200000000000003
aF0.53600000000000003
aF0.56000000000000005
aF0.68600000000000005
aF0.63600000000000001
aF0.51400000000000001
aF0.57199999999999995
aF0.59399999999999997
aF0.56799999999999995
aF0.56599999999999995
aF0.51800000000000002
aF0.69599999999999995
aF0.52200000000000002
aF0.56999999999999995
aF0.64000000000000001
aF0.624
aF0.51200000000000001
aF0.64600000000000002
aF0.59599999999999997
aF0.66000000000000003
aF0.59799999999999998
aF0.50600000000000001
aF0.53400000000000003
aF0.64200000000000002
aF0.67000000000000004
aF0.56200000000000006
aF0.57599999999999996
aF0.65200000000000002
aF0.67600000000000005
aF0.60399999999999998
aF0.55800000000000005
aF0.63800000000000001
aF0.68400000000000005
aF0.53800000000000003
aF0.58199999999999996
aF0.54600000000000004
aF0.53000000000000003
aF0.53200000000000003
aF0.63
aF0.60199999999999998
aF0.67200000000000004
aF0.54200000000000004
aF0.64400000000000002
aF0.60999999999999999
aF0.50800000000000001
aF0.68000000000000005
aF0.65000000000000002
aF0.56399999999999995
aF0.55000000000000004
aF0.63200000000000001
aF0.52400000000000002
aF0.66400000000000003
aF0.504
aF0.52000000000000002
aF0.69799999999999995
aF0.626
aF0.63400000000000001
aF0.69399999999999995
aF0.69199999999999995
aF0.66800000000000004
aF0.54400000000000004
aF0.64800000000000002
aF0.54800000000000004
aF0.68799999999999994
aF0.55400000000000005
aF0.61199999999999999
aF0.65800000000000003
aF0.58999999999999997
aF0.57799999999999996
aF0.57399999999999995
aF0.54000000000000004
aF0.502
aF0.61599999999999999
aF0.59199999999999997
aF0.62
aF0.66600000000000004
aF0.67400000000000004
aF0.61399999999999999
aF0.52800000000000002
aF0.52600000000000002
aF0.58799999999999997
aF0.628
aF0.57999999999999996
aF0.51600000000000001
aF0.68999999999999995
aF0.55200000000000005
aF0.65600000000000003
aF0.65400000000000003
a(lp6
F0.55800000000000005
aF0.64200000000000002
aF0.70199999999999996
aF0.73399999999999999
aF0.72599999999999998
aF0.57399999999999995
aF0.56599999999999995
aF0.55400000000000005
aF0.68999999999999995
aF0.60999999999999999
aF0.67800000000000005
aF0.71799999999999997
aF0.61399999999999999
aF0.72199999999999998
aF0.56999999999999995
aF0.70599999999999996
aF0.58199999999999996
aF0.69399999999999995
aF0.60199999999999998
aF0.69799999999999995
aF0.63800000000000001
aF0.626
aF0.622
aF0.70999999999999996
aF0.66600000000000004
aF0.65400000000000003
aF0.58599999999999997
aF0.68200000000000005
aF0.55000000000000004
aF0.74199999999999999
aF0.68600000000000005
aF0.73799999999999999
aF0.66200000000000003
aF0.63
aF0.64600000000000002
aF0.60599999999999998
aF0.59399999999999997
aF0.56200000000000006
aF0.71399999999999997
aF0.72999999999999998
aF0.63400000000000001
aF0.58999999999999997
aF0.746
aF0.61799999999999999
aF0.59799999999999998
aF0.67400000000000004
aF0.65800000000000003
aF0.67000000000000004
aF0.65000000000000002
aF0.57799999999999996
a(lp7
F0.436
aF0.28599999999999998
aF0.36399999999999999
aF0.29199999999999998
aF0.26200000000000001
aF0.32500000000000001
aF0.48399999999999999
aF0.48699999999999999
aF0.41499999999999998
aF0.502
aF0.51100000000000001
aF0.316
aF0.41799999999999998
aF0.52000000000000002
aF0.28000000000000003
aF0.31
aF0.33700000000000002
aF0.42099999999999999
aF0.26500000000000001
aF0.253
aF0.38500000000000001
aF0.28299999999999997
aF0.53500000000000003
aF0.39700000000000002
aF0.42699999999999999
aF0.307
aF0.373
aF0.49299999999999999
aF0.54100000000000004
aF0.442
aF0.45400000000000001
aF0.52900000000000003
aF0.27100000000000002
aF0.376
aF0.51700000000000002
aF0.505
aF0.499
aF0.46899999999999997
aF0.26800000000000002
aF0.38200000000000001
aF0.48999999999999999
aF0.27400000000000002
aF0.44800000000000001
aF0.35199999999999998
aF0.39100000000000001
aF0.48099999999999998
aF0.46000000000000002
aF0.38800000000000001
aF0.46300000000000002
aF0.45100000000000001
aF0.35499999999999998
aF0.313
aF0.25
aF0.51400000000000001
aF0.39400000000000002
aF0.439
aF0.33100000000000002
aF0.42999999999999999
aF0.35799999999999998
aF0.379
aF0.40300000000000002
aF0.32800000000000001
aF0.25600000000000001
aF0.53200000000000003
aF0.34899999999999998
aF0.41199999999999998
aF0.40000000000000002
aF0.36099999999999999
aF0.46600000000000003
aF0.54400000000000004
aF0.37
aF0.30399999999999999
aF0.50800000000000001
aF0.30099999999999999
aF0.32200000000000001
aF0.25900000000000001
aF0.42399999999999999
aF0.45700000000000002
aF0.40899999999999997
aF0.34000000000000002
aF0.47499999999999998
aF0.44500000000000001
aF0.433
aF0.33400000000000002
aF0.54700000000000004
aF0.47199999999999998
aF0.52600000000000002
aF0.29499999999999998
aF0.496
aF0.40600000000000003
aF0.53800000000000003
aF0.27700000000000002
aF0.28899999999999998
aF0.34599999999999997
aF0.47799999999999998
aF0.34300000000000003
aF0.36699999999999999
aF0.29799999999999999
aF0.52300000000000002
aF0.31900000000000001
at.